target datalayout = "e-m:e-p270:32:32-p271:32:32-p272:64:64-i64:64-i128:128-f80:128-n8:16:32:64-S128"
target triple = "x86_64-pc-linux-gnu"

@.str.4 = private unnamed_addr constant [8 x i8] c"countOf\00", align 1

; Function Attrs: nounwind uwtable
define internal i64 @_operator_countOf_impl(ptr noundef %0, ptr noundef %1, ptr noundef %2) #0 {
  %4 = alloca ptr, align 8
  %5 = alloca ptr, align 8
  %6 = alloca ptr, align 8
  store ptr %0, ptr %4, align 8, !tbaa !4
  store ptr %1, ptr %5, align 8, !tbaa !4
  store ptr %2, ptr %6, align 8, !tbaa !4
  %7 = load ptr, ptr %5, align 8, !tbaa !4
  %8 = load ptr, ptr %6, align 8, !tbaa !4
  %9 = call i64 @PySequence_Count(ptr noundef %7, ptr noundef %8)
  ret i64 %9
}

; Function Attrs: nounwind uwtable
define internal ptr @_operator_countOf(ptr noundef %0, ptr noundef %1, i64 noundef %2) #0 {
  %4 = alloca ptr, align 8
  %5 = alloca ptr, align 8
  %6 = alloca i64, align 8
  %7 = alloca ptr, align 8
  %8 = alloca ptr, align 8
  %9 = alloca ptr, align 8
  %10 = alloca i64, align 8
  store ptr %0, ptr %4, align 8, !tbaa !4
  store ptr %1, ptr %5, align 8, !tbaa !16
  store i64 %2, ptr %6, align 8, !tbaa !18
  call void @llvm.lifetime.start.p0(i64 8, ptr %7) #7
  store ptr null, ptr %7, align 8, !tbaa !4
  call void @llvm.lifetime.start.p0(i64 8, ptr %8) #7
  call void @llvm.lifetime.start.p0(i64 8, ptr %9) #7
  call void @llvm.lifetime.start.p0(i64 8, ptr %10) #7
  %11 = load i64, ptr %6, align 8, !tbaa !18
  %12 = icmp sle i64 2, %11
  br i1 %12, label %13, label %16

13:                                               ; preds = %3
  %14 = load i64, ptr %6, align 8, !tbaa !18
  %15 = icmp sle i64 %14, 2
  br i1 %15, label %21, label %16

16:                                               ; preds = %13, %3
  %17 = load i64, ptr %6, align 8, !tbaa !18
  %18 = call i32 @_PyArg_CheckPositional(ptr noundef @.str.4, i64 noundef %17, i64 noundef 2, i64 noundef 2)
  %19 = icmp ne i32 %18, 0
  br i1 %19, label %21, label %20

20:                                               ; preds = %16
  br label %41

21:                                               ; preds = %16, %13
  %22 = load ptr, ptr %5, align 8, !tbaa !16
  %23 = getelementptr ptr, ptr %22, i64 0
  %24 = load ptr, ptr %23, align 8, !tbaa !4
  store ptr %24, ptr %8, align 8, !tbaa !4
  %25 = load ptr, ptr %5, align 8, !tbaa !16
  %26 = getelementptr ptr, ptr %25, i64 1
  %27 = load ptr, ptr %26, align 8, !tbaa !4
  store ptr %27, ptr %9, align 8, !tbaa !4
  %28 = load ptr, ptr %4, align 8, !tbaa !4
  %29 = load ptr, ptr %8, align 8, !tbaa !4
  %30 = load ptr, ptr %9, align 8, !tbaa !4
  %31 = call i64 @_operator_countOf_impl(ptr noundef %28, ptr noundef %29, ptr noundef %30)
  store i64 %31, ptr %10, align 8, !tbaa !18
  %32 = load i64, ptr %10, align 8, !tbaa !18
  %33 = icmp eq i64 %32, -1
  br i1 %33, label %34, label %38

34:                                               ; preds = %21
  %35 = call ptr @PyErr_Occurred()
  %36 = icmp ne ptr %35, null
  br i1 %36, label %37, label %38

37:                                               ; preds = %34
  br label %41

38:                                               ; preds = %34, %21
  %39 = load i64, ptr %10, align 8, !tbaa !18
  %40 = call ptr @PyLong_FromSsize_t(i64 noundef %39)
  store ptr %40, ptr %7, align 8, !tbaa !4
  br label %41

41:                                               ; preds = %38, %37, %20
  %42 = load ptr, ptr %7, align 8, !tbaa !4
  call void @llvm.lifetime.end.p0(i64 8, ptr %10) #7
  call void @llvm.lifetime.end.p0(i64 8, ptr %9) #7
  call void @llvm.lifetime.end.p0(i64 8, ptr %8) #7
  call void @llvm.lifetime.end.p0(i64 8, ptr %7) #7
  ret ptr %42
}